target datalayout = "e-m:e-p270:32:32-p271:32:32-p272:64:64-i64:64-i128:128-f80:128-n8:16:32:64-S128"
target triple = "x86_64-pc-linux-gnu"

%struct.ZSTDv04_Dctx_s = type { [1025 x i32], [513 x i32], [1025 x i32], ptr, ptr, ptr, ptr, i64, i64, %struct.ZSTD_parameters, i32, i32, ptr, i64, [131080 x i8], [5 x i8] }
%struct.ZSTD_parameters = type { i64, i32, i32, i32, i32, i32, i32 }

; Function Attrs: nounwind uwtable
define internal i64 @ZSTD_resetDCtx(ptr noundef %0) #0 {
  %2 = alloca ptr, align 8
  store ptr %0, ptr %2, align 8, !tbaa !23
  %3 = load ptr, ptr %2, align 8, !tbaa !23
  %4 = getelementptr inbounds nuw %struct.ZSTDv04_Dctx_s, ptr %3, i32 0, i32 7
  store i64 5, ptr %4, align 8, !tbaa !31
  %5 = load ptr, ptr %2, align 8, !tbaa !23
  %6 = getelementptr inbounds nuw %struct.ZSTDv04_Dctx_s, ptr %5, i32 0, i32 11
  store i32 0, ptr %6, align 4, !tbaa !32
  %7 = load ptr, ptr %2, align 8, !tbaa !23
  %8 = getelementptr inbounds nuw %struct.ZSTDv04_Dctx_s, ptr %7, i32 0, i32 3
  store ptr null, ptr %8, align 8, !tbaa !25
  %9 = load ptr, ptr %2, align 8, !tbaa !23
  %10 = getelementptr inbounds nuw %struct.ZSTDv04_Dctx_s, ptr %9, i32 0, i32 4
  store ptr null, ptr %10, align 8, !tbaa !29
  %11 = load ptr, ptr %2, align 8, !tbaa !23
  %12 = getelementptr inbounds nuw %struct.ZSTDv04_Dctx_s, ptr %11, i32 0, i32 5
  store ptr null, ptr %12, align 8, !tbaa !30
  %13 = load ptr, ptr %2, align 8, !tbaa !23
  %14 = getelementptr inbounds nuw %struct.ZSTDv04_Dctx_s, ptr %13, i32 0, i32 6
  store ptr null, ptr %14, align 8, !tbaa !28
  ret i64 0
}

; Function Attrs: nounwind uwtable
define i64 @ZSTDv04_resetDCtx(ptr noundef %0) #0 {
  %2 = alloca ptr, align 8
  store ptr %0, ptr %2, align 8, !tbaa !23
  %3 = load ptr, ptr %2, align 8, !tbaa !23
  %4 = call i64 @ZSTD_resetDCtx(ptr noundef %3)
  ret i64 %4
}