; Function Attrs: mustprogress nofree norecurse nosync nounwind willreturn memory(argmem: write) uwtable
define noundef i64 @ZSTDv04_resetDCtx(ptr noundef writeonly captures(none) initializes((10256, 10296), (10340, 10344)) %0) local_unnamed_addr #4 {
  %2 = getelementptr inbounds nuw i8, ptr %0, i64 10288
  store i64 5, ptr %2, align 8, !tbaa !10
  %3 = getelementptr inbounds nuw i8, ptr %0, i64 10340
  store i32 0, ptr %3, align 4, !tbaa !16
  %4 = getelementptr inbounds nuw i8, ptr %0, i64 10256
  tail call void @llvm.memset.p0.i64(ptr noundef nonnull align 8 dereferenceable(32) %4, i8 0, i64 32, i1 false)
  ret i64 0
}